; Function Attrs: mustprogress uwtable
define hidden void @_ZNK19OpenColorIO_v2_4dev20GradingPrimaryOpData8validateEv(ptr nocapture noundef nonnull readonly align 8 dereferenceable(192) %this) unnamed_addr #3 align 2 {
entry:
  %m_value = getelementptr inbounds i8, ptr %this, i64 176
  %0 = load ptr, ptr %m_value, align 8
  %vtable = load ptr, ptr %0, align 8
  %vfn = getelementptr inbounds i8, ptr %vtable, i64 24
  %1 = load ptr, ptr %vfn, align 8
  %call2 = tail call noundef nonnull align 8 dereferenceable(272) ptr %1(ptr noundef nonnull align 8 dereferenceable(392) %0)
  %m_style = getelementptr inbounds i8, ptr %this, i64 168
  %2 = load i32, ptr %m_style, align 8
  tail call void @_ZNK19OpenColorIO_v2_4dev14GradingPrimary8validateENS_12GradingStyleE(ptr noundef nonnull align 8 dereferenceable(272) %call2, i32 noundef %2)
  ret void
}